Certificate:
    Data:
        Version: 3 (0x2)
        Serial Number: 1 (0x1)
    Signature Algorithm: sha256WithRSAEncryption
        Issuer: C=MY, ST=SABAH, L=KOTA KINABALU, O=v-code.com, OU=v-code, CN=v-code.com/name=v-code/emailAddress=Admin@v-code.com
        Validity
            Not Before: Mar 19 16:15:02 2022 GMT
            Not After : Mar 16 16:15:02 2032 GMT
        Subject: C=MY, ST=V-Code, L=KOTA KINABALU, O=V-Code, OU=V-Code, CN=v-code.xyz/name=v-code/emailAddress=admin@v-code.xyz
        Subject Public Key Info:
            Public Key Algorithm: rsaEncryption
                Public-Key: (4096 bit)
                Modulus:
                    00:ee:11:7e:3b:09:cf:43:5a:70:e8:4e:5f:06:20:
                    16:50:6a:65:10:85:f9:8c:ff:d8:0c:1c:aa:c2:6d:
                    91:ce:f1:29:87:76:49:8c:1a:5a:64:75:bc:54:bf:
                    06:5d:b3:13:16:24:a2:9b:15:0a:df:1b:03:0b:a8:
                    5f:96:8b:55:b8:d5:29:a0:62:47:38:6a:89:4f:c0:
                    42:70:c8:b1:c4:9c:dd:12:6d:1c:98:af:10:a0:8f:
                    44:fc:2f:69:cc:8b:e3:10:a5:90:f5:d4:95:94:14:
                    4d:3d:77:0e:62:18:d6:20:90:47:60:7b:09:aa:e2:
                    d1:63:75:d7:cd:33:ef:65:d3:01:b9:aa:b7:2c:cf:
                    83:52:f2:7a:6e:f0:72:90:ed:bf:74:25:33:fb:47:
                    ac:32:1c:73:ae:39:4a:83:4c:3d:38:b9:31:2f:dc:
                    15:0b:96:b1:4c:48:8d:62:a7:ea:c7:f3:94:c2:37:
                    47:28:71:b9:97:b6:48:cd:c4:83:bf:b5:c8:14:48:
                    f1:13:2f:53:8b:2d:1e:c4:bb:fe:88:72:f2:c0:a6:
                    b6:04:38:5f:17:8f:6f:c5:bf:79:db:22:2a:40:1b:
                    bd:aa:fd:f2:2a:f5:72:06:23:04:33:95:06:b7:f3:
                    3a:20:bf:a4:f9:6b:ff:cb:6f:fd:67:37:03:a5:6b:
                    40:8f:7c:c0:ef:39:f5:1b:06:f6:f9:c1:dd:9e:c7:
                    e7:e9:be:ff:03:bb:24:4f:42:14:cd:41:5b:13:b7:
                    ae:dd:07:f2:3e:32:5e:74:d0:48:20:ae:c1:e2:7c:
                    b8:aa:21:10:cf:b2:8d:85:88:fe:83:77:84:c8:20:
                    dc:8e:ef:62:7d:24:7c:1b:c7:86:d3:a8:9b:29:55:
                    3a:43:1a:b7:be:e6:05:fa:b5:90:bc:04:d7:d6:7d:
                    3f:1c:25:83:9f:36:bd:f5:93:5d:53:00:da:da:58:
                    0e:ba:3e:e5:99:4d:ce:40:e2:ea:87:35:bf:1b:14:
                    53:d6:da:28:b9:86:dc:04:9a:91:35:47:66:c2:76:
                    98:dd:0a:ff:40:c6:c7:d3:60:f9:eb:78:2c:32:47:
                    43:b8:be:15:4e:97:28:60:ec:86:04:86:7f:fc:af:
                    f4:d5:4f:a9:3b:37:33:b1:48:18:37:af:c2:12:10:
                    b2:ca:44:e8:ec:65:e0:eb:a2:45:32:90:51:8f:d1:
                    5d:63:5d:d9:1b:cc:68:36:da:16:2b:3b:52:7c:52:
                    fe:69:ef:82:b5:d5:e1:ea:29:0f:dd:6e:9a:ad:54:
                    fc:dd:7f:8f:fc:ad:64:ea:db:4b:25:ad:88:9f:21:
                    5d:bd:88:ed:5f:e0:49:5a:9d:5b:0a:e9:d0:02:7a:
                    c8:2e:f3
                Exponent: 65537 (0x10001)
        X509v3 extensions:
            X509v3 Basic Constraints: 
                CA:FALSE
            Netscape Cert Type: 
                SSL Server
            Netscape Comment: 
                Easy-RSA Generated Server Certificate
            X509v3 Subject Key Identifier: 
                B1:5F:E1:15:6F:A0:FF:31:36:DA:5D:FF:9A:B3:46:DA:C7:47:07:BD
            X509v3 Authority Key Identifier: 
                keyid:24:F0:13:39:61:F3:7C:D5:E0:5C:D9:7B:DF:16:BF:E0:9C:4B:E6:EC
                DirName:/C=MY/ST=SABAH/L=KOTA KINABALU/O=v-code.com/OU=v-code/CN=v-code.com/name=v-code/emailAddress=Admin@v-code.com
                serial:C2:1F:7D:4E:EE:C8:6C:52

            X509v3 Extended Key Usage: 
                TLS Web Server Authentication
            X509v3 Key Usage: 
                Digital Signature, Key Encipherment
    Signature Algorithm: sha256WithRSAEncryption
         82:ad:58:ff:a2:1e:f3:8e:e5:0f:37:53:5b:5d:ba:14:7a:ce:
         e5:12:12:a2:7b:a5:14:6f:99:dd:83:68:24:70:05:9a:4e:d5:
         4f:20:03:92:96:3d:4e:70:e5:0f:86:00:7f:d5:16:49:f7:05:
         b4:4f:cb:90:33:5b:ee:01:d6:77:50:2f:63:21:35:b7:96:5f:
         a9:c5:e2:b1:2c:1a:84:d9:36:9a:3e:8a:1c:ef:fa:fd:5f:25:
         fd:61:19:0e:ed:0b:55:a1:a1:ee:f0:b4:51:1c:fe:a5:9f:78:
         29:48:7b:ec:a1:91:6a:c9:f2:af:b5:a9:d1:3d:d0:d2:22:6d:
         fd:eb:4a:14:78:82:75:74:0f:38:21:62:e2:90:c4:f0:82:60:
         9c:bf:7e:c1:c5:a2:4f:f3:92:4b:ce:38:56:5e:7f:a6:eb:8a:
         1d:d7:34:fb:e3:fe:bf:81:ef:e7:57:65:da:9d:0a:ac:8a:ed:
         84:d0:5e:93:89:4f:2c:75:70:4c:6c:64:03:f0:d2:84:4b:1a:
         f2:ac:4e:08:9e:68:86:66:f9:b9:13:6c:7c:50:f6:0b:28:c4:
         a4:f3:57:24:57:d8:c3:62:3d:f9:ec:54:bc:99:04:68:12:9c:
         31:59:aa:92:ff:8d:56:8e:fd:30:6a:6f:eb:99:1f:c4:78:c5:
         a8:97:d0:b4:99:94:65:3e:2d:5e:f4:14:ca:c8:4b:3b:62:4d:
         55:73:8e:a7:1b:4c:28:ef:4c:ac:e2:ea:74:e4:ae:67:7e:5d:
         12:9b:76:3e:3c:14:0c:00:e5:6a:ed:cb:4c:cd:c6:de:10:b4:
         9b:2b:2b:14:57:eb:88:bc:e5:95:ad:c3:d3:ec:61:ec:19:bb:
         f0:b9:a5:f5:17:93:71:07:06:d7:7b:13:35:14:c4:b2:28:31:
         d9:39:1d:28:96:ae:51:2a:e6:88:60:d1:56:d7:77:a6:a0:5f:
         3f:1e:92:c9:e9:ef:bf:44:41:4a:a3:fe:04:19:f3:7b:39:c7:
         5b:4c:a9:24:b5:ae:d3:44:9b:e4:53:c7:8b:4f:7e:f6:4e:13:
         44:73:11:d3:f9:be:b7:2f:32:17:2f:0a:52:8d:18:3c:96:e3:
         10:45:30:9f:7c:ca:cc:c5:d1:52:3a:56:3c:87:29:01:b6:dc:
         4a:28:bd:13:a7:85:b5:0c:7a:b4:dc:93:5d:d1:7b:2e:b9:5d:
         1c:6a:31:a0:ec:de:a0:a1:07:42:71:02:0d:43:8f:06:cd:96:
         31:cf:cd:49:cb:e7:ba:82:53:20:56:62:00:b8:ce:57:37:87:
         ad:21:e2:53:20:7f:30:09:c2:0d:de:03:35:50:28:3c:52:ff:
         0b:4f:d2:a0:90:9f:41:c1
-----BEGIN CERTIFICATE-----
MIIHMzCCBRugAwIBAgIBATANBgkqhkiG9w0BAQsFADCBojELMAkGA1UEBhMCTVkx
DjAMBgNVBAgTBVNBQkFIMRYwFAYDVQQHEw1LT1RBIEtJTkFCQUxVMRMwEQYDVQQK
Ewp2LWNvZGUuY29tMQ8wDQYDVQQLEwZ2LWNvZGUxEzARBgNVBAMTCnYtY29kZS5j
b20xDzANBgNVBCkTBnYtY29kZTEfMB0GCSqGSIb3DQEJARYQQWRtaW5Adi1jb2Rl
LmNvbTAeFw0yMjAzMTkxNjE1MDJaFw0zMjAzMTYxNjE1MDJaMIGfMQswCQYDVQQG
EwJNWTEPMA0GA1UECBMGVi1Db2RlMRYwFAYDVQQHEw1LT1RBIEtJTkFCQUxVMQ8w
DQYDVQQKEwZWLUNvZGUxDzANBgNVBAsTBlYtQ29kZTETMBEGA1UEAxMKdi1jb2Rl
Lnh5ejEPMA0GA1UEKRMGdi1jb2RlMR8wHQYJKoZIhvcNAQkBFhBhZG1pbkB2LWNv
ZGUueHl6MIICIjANBgkqhkiG9w0BAQEFAAOCAg8AMIICCgKCAgEA7hF+OwnPQ1pw
6E5fBiAWUGplEIX5jP/YDByqwm2RzvEph3ZJjBpaZHW8VL8GXbMTFiSimxUK3xsD
C6hflotVuNUpoGJHOGqJT8BCcMixxJzdEm0cmK8QoI9E/C9pzIvjEKWQ9dSVlBRN
PXcOYhjWIJBHYHsJquLRY3XXzTPvZdMBuaq3LM+DUvJ6bvBykO2/dCUz+0esMhxz
rjlKg0w9OLkxL9wVC5axTEiNYqfqx/OUwjdHKHG5l7ZIzcSDv7XIFEjxEy9Tiy0e
xLv+iHLywKa2BDhfF49vxb952yIqQBu9qv3yKvVyBiMEM5UGt/M6IL+k+Wv/y2/9
ZzcDpWtAj3zA7zn1Gwb2+cHdnsfn6b7/A7skT0IUzUFbE7eu3QfyPjJedNBIIK7B
4ny4qiEQz7KNhYj+g3eEyCDcju9ifSR8G8eG06ibKVU6Qxq3vuYF+rWQvATX1n0/
HCWDnza99ZNdUwDa2lgOuj7lmU3OQOLqhzW/GxRT1toouYbcBJqRNUdmwnaY3Qr/
QMbH02D563gsMkdDuL4VTpcoYOyGBIZ//K/01U+pOzczsUgYN6/CEhCyykTo7GXg
66JFMpBRj9FdY13ZG8xoNtoWKztSfFL+ae+CtdXh6ikP3W6arVT83X+P/K1k6ttL
Ja2InyFdvYjtX+BJWp1bCunQAnrILvMCAwEAAaOCAXMwggFvMAkGA1UdEwQCMAAw
EQYJYIZIAYb4QgEBBAQDAgZAMDQGCWCGSAGG+EIBDQQnFiVFYXN5LVJTQSBHZW5l
cmF0ZWQgU2VydmVyIENlcnRpZmljYXRlMB0GA1UdDgQWBBSxX+EVb6D/MTbaXf+a
s0bax0cHvTCB1wYDVR0jBIHPMIHMgBQk8BM5YfN81eBc2XvfFr/gnEvm7KGBqKSB
pTCBojELMAkGA1UEBhMCTVkxDjAMBgNVBAgTBVNBQkFIMRYwFAYDVQQHEw1LT1RB
IEtJTkFCQUxVMRMwEQYDVQQKEwp2LWNvZGUuY29tMQ8wDQYDVQQLEwZ2LWNvZGUx
EzARBgNVBAMTCnYtY29kZS5jb20xDzANBgNVBCkTBnYtY29kZTEfMB0GCSqGSIb3
DQEJARYQQWRtaW5Adi1jb2RlLmNvbYIJAMIffU7uyGxSMBMGA1UdJQQMMAoGCCsG
AQUFBwMBMAsGA1UdDwQEAwIFoDANBgkqhkiG9w0BAQsFAAOCAgEAgq1Y/6Ie847l
DzdTW126FHrO5RISonulFG+Z3YNoJHAFmk7VTyADkpY9TnDlD4YAf9UWSfcFtE/L
kDNb7gHWd1AvYyE1t5ZfqcXisSwahNk2mj6KHO/6/V8l/WEZDu0LVaGh7vC0URz+
pZ94KUh77KGRasnyr7Wp0T3Q0iJt/etKFHiCdXQPOCFi4pDE8IJgnL9+wcWiT/OS
S844Vl5/puuKHdc0++P+v4Hv51dl2p0KrIrthNBek4lPLHVwTGxkA/DShEsa8qxO
CJ5ohmb5uRNsfFD2CyjEpPNXJFfYw2I9+exUvJkEaBKcMVmqkv+NVo79MGpv65kf
xHjFqJfQtJmUZT4tXvQUyshLO2JNVXOOpxtMKO9MrOLqdOSuZ35dEpt2PjwUDADl
au3LTM3G3hC0mysrFFfriLzlla3D0+xh7Bm78Lml9ReTcQcG13sTNRTEsigx2Tkd
KJauUSrmiGDRVtd3pqBfPx6Syenvv0RBSqP+BBnzeznHW0ypJLWu00Sb5FPHi09+
9k4TRHMR0/m+ty8yFy8KUo0YPJbjEEUwn3zKzMXRUjpWPIcpAbbcSii9E6eFtQx6
tNyTXdF7LrldHGoxoOzeoKEHQnECDUOPBs2WMc/NScvnuoJTIFZiALjOVzeHrSHi
UyB/MAnCDd4DNVAoPFL/C0/SoJCfQcE=
-----END CERTIFICATE-----
