Certificate:
    Data:
        Version: 3 (0x2)
        Serial Number: 2 (0x2)
    Signature Algorithm: sha256WithRSAEncryption
        Issuer: C=MY, ST=SABAH, L=KOTA KINABALU, O=v-code.com, OU=v-code, CN=v-code.com/name=v-code/emailAddress=Admin@v-code.com
        Validity
            Not Before: Mar 19 16:17:44 2022 GMT
            Not After : Mar 16 16:17:44 2032 GMT
        Subject: C=MY, ST=SABAH, L=KOTA KINABALU, O=V-CODE, OU=V-CODE, CN=V-CODE.xyz/name=v-code/emailAddress=admin@v-code.com
        Subject Public Key Info:
            Public Key Algorithm: rsaEncryption
                Public-Key: (4096 bit)
                Modulus:
                    00:cb:f0:e5:d3:22:0f:47:8e:22:93:70:4b:3a:7b:
                    f0:b5:4c:51:d6:1e:9b:2a:f4:5b:98:ac:97:5e:f0:
                    ee:81:83:ea:60:45:57:55:df:59:e7:53:ff:87:ac:
                    90:e2:25:48:49:3b:e8:55:7b:22:12:a9:08:ea:eb:
                    70:7f:9a:8a:da:44:46:c3:f3:ec:1b:f9:e4:cc:ec:
                    bc:9a:5c:a0:d1:65:50:84:e1:2e:12:4d:84:50:6e:
                    51:41:67:a2:94:77:a5:b8:22:1d:9a:1c:c3:9f:8b:
                    3d:f3:dc:1b:9d:cd:c9:2c:96:86:43:13:45:1f:ef:
                    81:c1:4c:16:d4:5b:ae:24:8b:32:4a:54:b1:42:36:
                    74:1b:1c:d0:92:5b:5b:2b:ab:bf:b9:86:0f:87:86:
                    5c:f9:2e:f7:81:a7:62:68:94:d8:7d:70:45:44:b5:
                    46:96:22:e8:a0:35:09:d1:67:2d:6e:5c:d2:4f:96:
                    bc:17:31:7c:4a:b0:fd:ca:e8:5f:f7:d1:ee:e0:9f:
                    53:bb:99:40:43:ef:28:79:01:76:92:83:e0:42:79:
                    ab:2f:29:a6:9e:53:55:e5:52:e9:8d:de:4e:45:7c:
                    bd:40:d9:8e:66:0d:89:72:b4:92:ac:17:f5:aa:e6:
                    b4:9d:78:ee:4a:95:f1:e5:83:22:bc:59:20:11:fe:
                    57:c1:31:3a:55:21:60:54:cd:43:f5:15:57:ed:b2:
                    11:76:6c:fd:ea:e3:65:5a:28:27:81:0d:34:a2:8b:
                    b2:4c:32:82:ba:0a:14:5d:69:d2:2d:37:75:be:01:
                    72:a7:e4:8a:cb:2d:8b:5d:f8:a2:e0:be:2a:56:5b:
                    b0:7f:ee:fb:65:83:08:b8:41:b1:4f:97:aa:0d:2b:
                    77:54:82:85:44:5b:94:8b:d5:16:28:00:17:07:05:
                    1c:2b:11:c6:39:57:48:a7:b9:38:ac:22:ff:7e:e5:
                    12:27:3f:f6:d9:b9:25:31:97:7a:ad:6d:1b:a3:7c:
                    b5:99:ea:25:20:2b:8b:6f:f3:cb:fa:7f:56:d0:c1:
                    d0:00:32:d7:d0:81:34:75:55:87:d7:8c:eb:2e:87:
                    18:1c:c4:77:16:7e:33:7a:df:13:ed:50:6a:2a:89:
                    f5:8e:6e:31:2f:9e:22:5f:7c:17:4e:7a:98:b5:43:
                    1b:ac:5b:e5:15:47:95:4d:86:e4:e1:9d:e5:1f:6d:
                    d2:d6:ac:69:cd:83:83:4e:54:97:e3:d9:5b:f1:8d:
                    a9:56:cb:25:eb:58:2e:61:86:13:cf:b6:c6:9c:fa:
                    a5:33:c3:13:20:55:b0:61:f4:e2:cb:13:a9:3d:07:
                    cf:e6:23:ab:79:62:46:35:34:71:bc:7b:de:ef:0a:
                    87:42:33
                Exponent: 65537 (0x10001)
        X509v3 extensions:
            X509v3 Basic Constraints: 
                CA:FALSE
            Netscape Comment: 
                Easy-RSA Generated Certificate
            X509v3 Subject Key Identifier: 
                21:36:D3:27:7D:60:35:36:AB:01:25:EA:78:CB:88:4C:29:2B:C8:89
            X509v3 Authority Key Identifier: 
                keyid:24:F0:13:39:61:F3:7C:D5:E0:5C:D9:7B:DF:16:BF:E0:9C:4B:E6:EC
                DirName:/C=MY/ST=SABAH/L=KOTA KINABALU/O=v-code.com/OU=v-code/CN=v-code.com/name=v-code/emailAddress=Admin@v-code.com
                serial:C2:1F:7D:4E:EE:C8:6C:52

            X509v3 Extended Key Usage: 
                TLS Web Client Authentication
            X509v3 Key Usage: 
                Digital Signature
    Signature Algorithm: sha256WithRSAEncryption
         32:7c:9e:fc:28:fd:84:cb:73:e5:33:86:8c:eb:c1:7c:26:05:
         ad:ee:74:e1:28:c6:70:57:47:3f:b8:ea:72:49:82:03:79:4c:
         9d:bb:cf:35:54:94:96:fb:48:9e:e8:d0:28:c8:6e:8a:57:67:
         0e:29:39:df:e7:70:5b:f1:f9:32:8a:0c:88:fd:03:d2:2a:65:
         56:39:34:85:1c:ae:a6:c4:01:8c:47:9a:8d:0c:20:4d:d5:54:
         0d:85:95:26:3f:b4:49:2d:6b:f2:75:b5:44:1e:b1:12:06:15:
         ba:a3:90:c0:e9:86:54:b1:8f:51:46:67:6b:e7:bf:95:9a:a0:
         f5:3d:15:b1:d6:6a:a6:58:ae:c8:ba:25:2a:c4:ce:20:3c:fd:
         3f:4b:42:62:03:a2:8e:e6:a0:56:88:8a:33:c8:ff:b1:ac:93:
         75:a6:20:0d:cb:09:5e:7d:12:be:c0:39:ae:67:8d:b9:bf:36:
         9c:9a:53:db:d2:16:f2:4a:51:a8:7a:df:5e:1f:b0:50:1c:a2:
         6e:af:05:8f:ce:cd:21:63:a4:a7:e0:28:20:5a:27:17:cd:30:
         2c:ee:19:2d:df:30:53:c5:77:fc:f6:6e:1d:2d:4e:72:02:8d:
         cf:8f:9c:82:ed:bb:2e:c6:d2:2b:54:4a:d3:b8:98:26:01:97:
         41:09:67:66:cd:74:1e:04:61:1d:ab:62:c8:d2:56:69:c1:64:
         75:27:d0:fd:0b:65:c9:2e:6a:a5:98:41:83:bd:31:5b:ea:ae:
         99:8a:7e:c3:5e:76:93:56:d7:c9:35:de:f2:8f:23:e7:f3:29:
         91:15:2b:e9:f2:c6:9f:4c:9b:7e:ca:76:29:ef:0f:c4:ae:97:
         cd:17:bb:39:a5:43:31:44:53:d6:42:72:9e:1d:29:19:29:cf:
         19:13:c0:84:cb:aa:43:ef:34:a2:26:8f:c0:ba:46:61:2e:f4:
         3a:14:88:5b:58:8e:e0:b7:a3:70:62:a9:e0:7b:81:fc:a3:c4:
         e0:1c:2c:d0:c2:b2:66:0d:93:2d:5a:b2:ae:e8:7a:fd:74:2b:
         f7:69:14:8a:44:00:5f:2e:49:3d:92:93:1c:8c:c7:dc:cb:c0:
         05:6a:21:f0:d7:28:00:f9:fa:c3:c8:d3:93:a1:46:f1:9c:97:
         cf:2b:e5:da:98:82:f0:2e:2a:c9:92:21:df:11:a5:02:ea:b9:
         84:b4:cf:0b:1b:88:a5:2a:32:cf:8c:0d:41:c1:c8:67:53:e4:
         09:63:cf:1b:da:27:f4:26:d3:12:86:33:4d:e8:a2:d2:95:c5:
         3a:16:ea:66:ff:21:96:6c:b1:52:da:74:02:07:d1:31:95:1a:
         fe:3d:10:78:69:95:11:6f
-----BEGIN CERTIFICATE-----
MIIHGDCCBQCgAwIBAgIBAjANBgkqhkiG9w0BAQsFADCBojELMAkGA1UEBhMCTVkx
DjAMBgNVBAgTBVNBQkFIMRYwFAYDVQQHEw1LT1RBIEtJTkFCQUxVMRMwEQYDVQQK
Ewp2LWNvZGUuY29tMQ8wDQYDVQQLEwZ2LWNvZGUxEzARBgNVBAMTCnYtY29kZS5j
b20xDzANBgNVBCkTBnYtY29kZTEfMB0GCSqGSIb3DQEJARYQQWRtaW5Adi1jb2Rl
LmNvbTAeFw0yMjAzMTkxNjE3NDRaFw0zMjAzMTYxNjE3NDRaMIGeMQswCQYDVQQG
EwJNWTEOMAwGA1UECBMFU0FCQUgxFjAUBgNVBAcTDUtPVEEgS0lOQUJBTFUxDzAN
BgNVBAoTBlYtQ09ERTEPMA0GA1UECxMGVi1DT0RFMRMwEQYDVQQDEwpWLUNPREUu
eHl6MQ8wDQYDVQQpEwZ2LWNvZGUxHzAdBgkqhkiG9w0BCQEWEGFkbWluQHYtY29k
ZS5jb20wggIiMA0GCSqGSIb3DQEBAQUAA4ICDwAwggIKAoICAQDL8OXTIg9HjiKT
cEs6e/C1TFHWHpsq9FuYrJde8O6Bg+pgRVdV31nnU/+HrJDiJUhJO+hVeyISqQjq
63B/moraREbD8+wb+eTM7LyaXKDRZVCE4S4STYRQblFBZ6KUd6W4Ih2aHMOfiz3z
3BudzcksloZDE0Uf74HBTBbUW64kizJKVLFCNnQbHNCSW1srq7+5hg+Hhlz5LveB
p2JolNh9cEVEtUaWIuigNQnRZy1uXNJPlrwXMXxKsP3K6F/30e7gn1O7mUBD7yh5
AXaSg+BCeasvKaaeU1XlUumN3k5FfL1A2Y5mDYlytJKsF/Wq5rSdeO5KlfHlgyK8
WSAR/lfBMTpVIWBUzUP1FVftshF2bP3q42VaKCeBDTSii7JMMoK6ChRdadItN3W+
AXKn5IrLLYtd+KLgvipWW7B/7vtlgwi4QbFPl6oNK3dUgoVEW5SL1RYoABcHBRwr
EcY5V0inuTisIv9+5RInP/bZuSUxl3qtbRujfLWZ6iUgK4tv88v6f1bQwdAAMtfQ
gTR1VYfXjOsuhxgcxHcWfjN63xPtUGoqifWObjEvniJffBdOepi1QxusW+UVR5VN
huThneUfbdLWrGnNg4NOVJfj2VvxjalWyyXrWC5hhhPPtsac+qUzwxMgVbBh9OLL
E6k9B8/mI6t5YkY1NHG8e97vCodCMwIDAQABo4IBWTCCAVUwCQYDVR0TBAIwADAt
BglghkgBhvhCAQ0EIBYeRWFzeS1SU0EgR2VuZXJhdGVkIENlcnRpZmljYXRlMB0G
A1UdDgQWBBQhNtMnfWA1NqsBJep4y4hMKSvIiTCB1wYDVR0jBIHPMIHMgBQk8BM5
YfN81eBc2XvfFr/gnEvm7KGBqKSBpTCBojELMAkGA1UEBhMCTVkxDjAMBgNVBAgT
BVNBQkFIMRYwFAYDVQQHEw1LT1RBIEtJTkFCQUxVMRMwEQYDVQQKEwp2LWNvZGUu
Y29tMQ8wDQYDVQQLEwZ2LWNvZGUxEzARBgNVBAMTCnYtY29kZS5jb20xDzANBgNV
BCkTBnYtY29kZTEfMB0GCSqGSIb3DQEJARYQQWRtaW5Adi1jb2RlLmNvbYIJAMIf
fU7uyGxSMBMGA1UdJQQMMAoGCCsGAQUFBwMCMAsGA1UdDwQEAwIHgDANBgkqhkiG
9w0BAQsFAAOCAgEAMnye/Cj9hMtz5TOGjOvBfCYFre504SjGcFdHP7jqckmCA3lM
nbvPNVSUlvtInujQKMhuildnDik53+dwW/H5MooMiP0D0iplVjk0hRyupsQBjEea
jQwgTdVUDYWVJj+0SS1r8nW1RB6xEgYVuqOQwOmGVLGPUUZna+e/lZqg9T0VsdZq
pliuyLolKsTOIDz9P0tCYgOijuagVoiKM8j/sayTdaYgDcsJXn0SvsA5rmeNub82
nJpT29IW8kpRqHrfXh+wUByibq8Fj87NIWOkp+AoIFonF80wLO4ZLd8wU8V3/PZu
HS1OcgKNz4+cgu27LsbSK1RK07iYJgGXQQlnZs10HgRhHatiyNJWacFkdSfQ/Qtl
yS5qpZhBg70xW+qumYp+w152k1bXyTXe8o8j5/MpkRUr6fLGn0ybfsp2Ke8PxK6X
zRe7OaVDMURT1kJynh0pGSnPGRPAhMuqQ+80oiaPwLpGYS70OhSIW1iO4LejcGKp
4HuB/KPE4Bws0MKyZg2TLVqyruh6/XQr92kUikQAXy5JPZKTHIzH3MvABWoh8Nco
APn6w8jTk6FG8ZyXzyvl2piC8C4qyZIh3xGlAuq5hLTPCxuIpSoyz4wNQcHIZ1Pk
CWPPG9on9CbTEoYzTeii0pXFOhbqZv8hlmyxUtp0AgfRMZUa/j0QeGmVEW8=
-----END CERTIFICATE-----
